; Function Attrs: mustprogress uwtable
define dso_local noundef zeroext i1 @_ZNK28cmNinjaNormalTargetGenerator32CheckUseResponseFileForLibrariesERKNSt7__cxx1112basic_stringIcSt11char_traitsIcESaIcEEE(ptr nocapture noundef nonnull readonly align 8 dereferenceable(272) %0, ptr noundef nonnull align 8 dereferenceable(32) %1) local_unnamed_addr #3 align 2 personality ptr @__gxx_personality_v0 {
  %3 = alloca %"class.std::__cxx11::basic_string", align 8
  %4 = alloca %"class.std::__cxx11::basic_string", align 8
  call void @_ZStplIcSt11char_traitsIcESaIcEENSt7__cxx1112basic_stringIT_T0_T1_EEPKS5_RKS8_(ptr dead_on_unwind nonnull writable sret(%"class.std::__cxx11::basic_string") align 8 %4, ptr noundef nonnull @.str.16, ptr noundef nonnull align 8 dereferenceable(32) %1)
  %5 = invoke noundef nonnull align 8 dereferenceable(32) ptr @_ZNSt7__cxx1112basic_stringIcSt11char_traitsIcESaIcEE6appendEPKc(ptr noundef nonnull align 8 dereferenceable(32) %4, ptr noundef nonnull @.str.17)
          to label %6 unwind label %15

6:                                                ; preds = %2
  call void @_ZNSt7__cxx1112basic_stringIcSt11char_traitsIcESaIcEEC1EOS4_(ptr noundef nonnull align 8 dereferenceable(32) %3, ptr noundef nonnull align 8 dereferenceable(32) %5) #17
  call void @_ZNSt7__cxx1112basic_stringIcSt11char_traitsIcESaIcEED1Ev(ptr noundef nonnull align 8 dereferenceable(32) %4) #17
  %7 = getelementptr inbounds i8, ptr %0, i64 16
  %8 = load ptr, ptr %7, align 8
  %9 = invoke ptr @_ZNK10cmMakefile13GetDefinitionERKNSt7__cxx1112basic_stringIcSt11char_traitsIcESaIcEEE(ptr noundef nonnull align 8 dereferenceable(3520) %8, ptr noundef nonnull align 8 dereferenceable(32) %3)
          to label %10 unwind label %17

10:                                               ; preds = %6
  %.not = icmp eq ptr %9, null
  br i1 %.not, label %19, label %_ZNK7cmValue4IsOnEv.exit

_ZNK7cmValue4IsOnEv.exit:                         ; preds = %10
  %11 = call { i64, ptr } @_ZNKSt7__cxx1112basic_stringIcSt11char_traitsIcESaIcEEcvSt17basic_string_viewIcS2_EEv(ptr noundef nonnull align 8 dereferenceable(32) %9) #17
  %12 = extractvalue { i64, ptr } %11, 0
  %13 = extractvalue { i64, ptr } %11, 1
  %14 = call noundef zeroext i1 @_ZN7cmValue4IsOnESt17basic_string_viewIcSt11char_traitsIcEE(i64 %12, ptr %13) #17
  br label %19

15:                                               ; preds = %2
  %16 = landingpad { ptr, i32 }
          cleanup
  br label %20

17:                                               ; preds = %6
  %18 = landingpad { ptr, i32 }
          cleanup
  br label %20

19:                                               ; preds = %10, %_ZNK7cmValue4IsOnEv.exit
  %.05 = phi i1 [ %14, %_ZNK7cmValue4IsOnEv.exit ], [ true, %10 ]
  call void @_ZNSt7__cxx1112basic_stringIcSt11char_traitsIcESaIcEED1Ev(ptr noundef nonnull align 8 dereferenceable(32) %3) #17
  ret i1 %.05

20:                                               ; preds = %17, %15
  %.sink = phi ptr [ %3, %17 ], [ %4, %15 ]
  %.pn = phi { ptr, i32 } [ %18, %17 ], [ %16, %15 ]
  call void @_ZNSt7__cxx1112basic_stringIcSt11char_traitsIcESaIcEED1Ev(ptr noundef nonnull align 8 dereferenceable(32) %.sink) #17
  resume { ptr, i32 } %.pn
}